; Function Attrs: mustprogress nounwind uwtable
define hidden void @_ZN4cvc58internal6theory2uf17ConversionsSolverD0Ev(ptr noundef nonnull align 8 dereferenceable(168) initializes((0, 8), (112, 120)) %0) unnamed_addr #5 align 2 personality ptr @__gxx_personality_v0 {
  store ptr getelementptr inbounds nuw inrange(-16, 16) (i8, ptr @_ZTVN4cvc58internal6theory2uf17ConversionsSolverE, i64 16), ptr %0, align 8, !tbaa !3
  %2 = getelementptr inbounds nuw i8, ptr %0, i64 112
  store ptr getelementptr inbounds nuw inrange(-16, 32) (i8, ptr @_ZTVN4cvc57context15CDInsertHashMapINS_8internal12NodeTemplateILb1EEEbSt4hashIS4_EEE, i64 16), ptr %2, align 8, !tbaa !3
  invoke void @_ZN4cvc57context10ContextObj7destroyEv(ptr noundef nonnull align 8 dereferenceable(56) %2)
          to label %3 unwind label %9

3:                                                ; preds = %1
  %4 = getelementptr inbounds nuw i8, ptr %0, i64 152
  %5 = load ptr, ptr %4, align 8, !tbaa !35
  %6 = icmp eq ptr %5, null
  br i1 %6, label %_ZN4cvc58internal6theory2uf17ConversionsSolverD2Ev.exit, label %7

7:                                                ; preds = %3
  %8 = getelementptr inbounds nuw i8, ptr %5, i64 80
  tail call void @_ZNSt10_HashtableIKN4cvc58internal12NodeTemplateILb1EEESt4pairIS4_KbESaIS7_ENSt8__detail10_Select1stESt8equal_toIS4_ESt4hashIS3_ENS9_18_Mod_range_hashingENS9_20_Default_ranged_hashENS9_20_Prime_rehash_policyENS9_17_Hashtable_traitsILb1ELb0ELb1EEEED2Ev(ptr noundef nonnull align 8 dereferenceable(56) %8) #22
  tail call void @_ZNSt5dequeIN4cvc58internal12NodeTemplateILb1EEESaIS3_EED2Ev(ptr noundef nonnull align 8 dereferenceable(136) %5) #22
  tail call void @_ZdlPvm(ptr noundef nonnull %5, i64 noundef 136) #21
  br label %_ZN4cvc58internal6theory2uf17ConversionsSolverD2Ev.exit

9:                                                ; preds = %1
  %10 = landingpad { ptr, i32 }
          catch ptr null
  %11 = extractvalue { ptr, i32 } %10, 0
  tail call void @__clang_call_terminate(ptr %11) #23
  unreachable

_ZN4cvc58internal6theory2uf17ConversionsSolverD2Ev.exit: ; preds = %3, %7
  %12 = getelementptr inbounds nuw i8, ptr %0, i64 32
  tail call void @_ZN4cvc57context6CDListINS_8internal12NodeTemplateILb1EEENS0_14DefaultCleanUpIS4_EESaIS4_EED2Ev(ptr noundef nonnull align 8 dereferenceable(74) %12) #22
  tail call void @_ZdlPvm(ptr noundef nonnull %0, i64 noundef 168) #21
  ret void
}